target datalayout = "e-m:e-p270:32:32-p271:32:32-p272:64:64-i64:64-i128:128-f80:128-n8:16:32:64-S128"
target triple = "x86_64-pc-linux-gnu"

%struct._lv_global_t = type { i8, i8, %struct.lv_ll_t, ptr, ptr, %struct.lv_ll_t, i8, i32, i32, ptr, %struct.lv_ll_t, ptr, %struct.lv_ll_t, ptr, ptr, i32, ptr, i8, i32, i32, ptr, i32, %struct.lv_timer_state_t, %struct.lv_anim_state_t, %struct.lv_tick_state_t, %struct._lv_draw_buf_handlers_t, %struct._lv_draw_buf_handlers_t, %struct._lv_draw_buf_handlers_t, %struct.lv_ll_t, ptr, ptr, %struct.lv_draw_global_info_t, [4 x %struct.lv_draw_sw_mask_radius_circle_dsc_t], ptr, ptr, ptr, %struct.lv_tlsf_state_t, %struct.lv_ll_t, ptr, ptr, %struct.lv_style_t, i64, ptr, i32, ptr }
%struct.lv_timer_state_t = type { %struct.lv_ll_t, i8, i8, i8, i8, i32, i8, i32, i32, i32, i32, ptr, ptr }
%struct.lv_anim_state_t = type { i8, i8, ptr, %struct.lv_ll_t }
%struct.lv_tick_state_t = type { i32, i8, ptr, ptr }
%struct._lv_draw_buf_handlers_t = type { ptr, ptr, ptr, ptr, ptr, ptr }
%struct.lv_draw_global_info_t = type { ptr, i32, i32, i32, i32, i8 }
%struct.lv_draw_sw_mask_radius_circle_dsc_t = type { ptr, ptr, ptr, ptr, i32, i32, i32 }
%struct.lv_tlsf_state_t = type { ptr, i64, i64, %struct.lv_ll_t }
%struct.lv_ll_t = type { i32, ptr, ptr }
%struct.lv_style_t = type { ptr, i32, i8 }

@lv_global = external global %struct._lv_global_t, align 8

; Function Attrs: nounwind uwtable
define ptr @lv_mem_add_pool(ptr noundef %0, i64 noundef %1) #0 {
  %3 = alloca ptr, align 8
  %4 = alloca ptr, align 8
  %5 = alloca i64, align 8
  %6 = alloca ptr, align 8
  %7 = alloca i32, align 4
  %8 = alloca ptr, align 8
  store ptr %0, ptr %4, align 8, !tbaa !30
  store i64 %1, ptr %5, align 8, !tbaa !31
  call void @llvm.lifetime.start.p0(i64 8, ptr %6) #4
  %9 = load ptr, ptr getelementptr inbounds nuw (%struct._lv_global_t, ptr @lv_global, i32 0, i32 36), align 8, !tbaa !3
  %10 = load ptr, ptr %4, align 8, !tbaa !30
  %11 = load i64, ptr %5, align 8, !tbaa !31
  %12 = call ptr @lv_tlsf_add_pool(ptr noundef %9, ptr noundef %10, i64 noundef %11)
  store ptr %12, ptr %6, align 8, !tbaa !30
  %13 = load ptr, ptr %6, align 8, !tbaa !30
  %14 = icmp ne ptr %13, null
  br i1 %14, label %19, label %15

15:                                               ; preds = %2
  br label %16

16:                                               ; preds = %15
  br label %17

17:                                               ; preds = %16
  br label %18

18:                                               ; preds = %17
  store ptr null, ptr %3, align 8
  store i32 1, ptr %7, align 4
  br label %36

19:                                               ; preds = %2
  call void @llvm.lifetime.start.p0(i64 8, ptr %8) #4
  %20 = call ptr @lv_ll_ins_tail(ptr noundef getelementptr inbounds nuw (%struct.lv_tlsf_state_t, ptr getelementptr inbounds nuw (%struct._lv_global_t, ptr @lv_global, i32 0, i32 36), i32 0, i32 3))
  store ptr %20, ptr %8, align 8, !tbaa !30
  br label %21

21:                                               ; preds = %19
  %22 = load ptr, ptr %8, align 8, !tbaa !30
  %23 = icmp ne ptr %22, null
  br i1 %23, label %30, label %24

24:                                               ; preds = %21
  br label %25

25:                                               ; preds = %24
  br label %26

26:                                               ; preds = %25
  br label %27

27:                                               ; preds = %26
  br label %28

28:                                               ; preds = %29, %27
  br label %29

29:                                               ; preds = %28
  br label %28

30:                                               ; preds = %21
  br label %31

31:                                               ; preds = %30
  br label %32

32:                                               ; preds = %31
  %33 = load ptr, ptr %6, align 8, !tbaa !30
  %34 = load ptr, ptr %8, align 8, !tbaa !30
  store ptr %33, ptr %34, align 8, !tbaa !30
  %35 = load ptr, ptr %6, align 8, !tbaa !30
  store ptr %35, ptr %3, align 8
  store i32 1, ptr %7, align 4
  call void @llvm.lifetime.end.p0(i64 8, ptr %8) #4
  br label %36

36:                                               ; preds = %32, %18
  call void @llvm.lifetime.end.p0(i64 8, ptr %6) #4
  %37 = load ptr, ptr %3, align 8
  ret ptr %37
}