; Function Attrs: nounwind uwtable
define ptr @lv_mem_add_pool(ptr noundef %0, i64 noundef %1) local_unnamed_addr #0 {
  %3 = load ptr, ptr getelementptr inbounds nuw (i8, ptr @lv_global, i64 784), align 8, !tbaa !3
  %4 = tail call ptr @lv_tlsf_add_pool(ptr noundef %3, ptr noundef %0, i64 noundef %1) #4
  %.not = icmp eq ptr %4, null
  br i1 %.not, label %8, label %5

5:                                                ; preds = %2
  %6 = tail call ptr @lv_ll_ins_tail(ptr noundef nonnull getelementptr inbounds nuw (i8, ptr @lv_global, i64 808)) #4
  %.not9 = icmp eq ptr %6, null
  br i1 %.not9, label %.preheader, label %7

.preheader:                                       ; preds = %5, %.preheader
  br label %.preheader

7:                                                ; preds = %5
  store ptr %4, ptr %6, align 8, !tbaa !30
  br label %8

8:                                                ; preds = %2, %7
  ret ptr %4
}